target datalayout = "e-m:e-p270:32:32-p271:32:32-p272:64:64-i64:64-i128:128-f80:128-n8:16:32:64-S128"
target triple = "x86_64-unknown-linux-gnu"

%struct.HashMap = type { ptr, i32, i32 }
%struct.Macro = type { ptr, i8, ptr, ptr, ptr, ptr }

@.str.1 = private unnamed_addr constant [11 x i8] c"<built-in>\00", align 1
@macros = internal global %struct.HashMap zeroinitializer, align 8

; Function Attrs: nounwind uwtable
define internal ptr @add_macro(ptr noundef %name, i1 noundef zeroext %is_objlike, ptr noundef %body) #0 {
entry:
  %name.addr = alloca ptr, align 8
  %is_objlike.addr = alloca i8, align 1
  %body.addr = alloca ptr, align 8
  %m = alloca ptr, align 8
  store ptr %name, ptr %name.addr, align 8
  %frombool = zext i1 %is_objlike to i8
  store i8 %frombool, ptr %is_objlike.addr, align 1
  store ptr %body, ptr %body.addr, align 8
  %call = call noalias ptr @calloc(i64 noundef 1, i64 noundef 48) #9
  store ptr %call, ptr %m, align 8
  %0 = load ptr, ptr %name.addr, align 8
  %1 = load ptr, ptr %m, align 8
  %name1 = getelementptr inbounds %struct.Macro, ptr %1, i32 0, i32 0
  store ptr %0, ptr %name1, align 8
  %2 = load i8, ptr %is_objlike.addr, align 1
  %tobool = trunc i8 %2 to i1
  %3 = load ptr, ptr %m, align 8
  %is_objlike2 = getelementptr inbounds %struct.Macro, ptr %3, i32 0, i32 1
  %frombool3 = zext i1 %tobool to i8
  store i8 %frombool3, ptr %is_objlike2, align 8
  %4 = load ptr, ptr %body.addr, align 8
  %5 = load ptr, ptr %m, align 8
  %body4 = getelementptr inbounds %struct.Macro, ptr %5, i32 0, i32 4
  store ptr %4, ptr %body4, align 8
  %6 = load ptr, ptr %name.addr, align 8
  %7 = load ptr, ptr %m, align 8
  call void @hashmap_put(ptr noundef @macros, ptr noundef %6, ptr noundef %7)
  %8 = load ptr, ptr %m, align 8
  ret ptr %8
}

; Function Attrs: nounwind uwtable
define dso_local void @define_macro(ptr noundef %name, ptr noundef %buf) #0 {
entry:
  %name.addr = alloca ptr, align 8
  %buf.addr = alloca ptr, align 8
  %tok = alloca ptr, align 8
  store ptr %name, ptr %name.addr, align 8
  store ptr %buf, ptr %buf.addr, align 8
  %0 = load ptr, ptr %buf.addr, align 8
  %call = call ptr @new_file(ptr noundef @.str.1, i32 noundef 1, ptr noundef %0)
  %call1 = call ptr @tokenize(ptr noundef %call)
  store ptr %call1, ptr %tok, align 8
  %1 = load ptr, ptr %name.addr, align 8
  %2 = load ptr, ptr %tok, align 8
  %call2 = call ptr @add_macro(ptr noundef %1, i1 noundef zeroext true, ptr noundef %2)
  ret void
}