; Function Attrs: nounwind uwtable
define dso_local void @define_macro(ptr noundef %name, ptr noundef %buf) local_unnamed_addr #0 {
entry:
  %call = tail call ptr @new_file(ptr noundef nonnull @.str.1, i32 noundef 1, ptr noundef %buf) #14
  %call1 = tail call ptr @tokenize(ptr noundef %call) #14
  %call.i = tail call noalias dereferenceable_or_null(48) ptr @calloc(i64 noundef 1, i64 noundef 48) #15
  store ptr %name, ptr %call.i, align 8
  %is_objlike2.i = getelementptr inbounds %struct.Macro, ptr %call.i, i64 0, i32 1
  store i8 1, ptr %is_objlike2.i, align 8
  %body4.i = getelementptr inbounds %struct.Macro, ptr %call.i, i64 0, i32 4
  store ptr %call1, ptr %body4.i, align 8
  tail call void @hashmap_put(ptr noundef nonnull @macros, ptr noundef %name, ptr noundef nonnull %call.i) #14
  ret void
}